target datalayout = "e-m:e-p270:32:32-p271:32:32-p272:64:64-i64:64-i128:128-f80:128-n8:16:32:64-S128"
target triple = "x86_64-unknown-linux-gnu"

%struct.utils__SkipUntilSpecification = type { i32, i32, %union.anon }
%union.anon = type { double }

@.str.9 = private unnamed_addr constant [13 x i8] c"1234567890.,\00", align 1

; Function Attrs: nounwind sspstrong uwtable
define internal i32 @local__parse_timecode_(ptr noundef %s, ptr noundef %value) #0 {
entry:
  %retval = alloca i32, align 4
  %s.addr = alloca ptr, align 8
  %value.addr = alloca ptr, align 8
  %ret = alloca double, align 8
  %i = alloca i32, align 4
  %c = alloca i8, align 1
  %endptr = alloca ptr, align 8
  store ptr %s, ptr %s.addr, align 8
  store ptr %value, ptr %value.addr, align 8
  %0 = load ptr, ptr %s.addr, align 8
  %incdec.ptr = getelementptr inbounds i8, ptr %0, i32 1
  store ptr %incdec.ptr, ptr %s.addr, align 8
  %1 = load i8, ptr %0, align 1
  store i8 %1, ptr %c, align 1
  %2 = load i8, ptr %c, align 1
  %conv = sext i8 %2 to i32
  %cmp = icmp sge i32 %conv, 48
  br i1 %cmp, label %land.lhs.true, label %if.else

land.lhs.true:                                    ; preds = %entry
  %3 = load i8, ptr %c, align 1
  %conv2 = sext i8 %3 to i32
  %cmp3 = icmp sle i32 %conv2, 57
  br i1 %cmp3, label %if.then, label %if.else

if.then:                                          ; preds = %land.lhs.true
  %4 = load i8, ptr %c, align 1
  %conv5 = sext i8 %4 to i32
  %sub = sub nsw i32 %conv5, 48
  store i32 %sub, ptr %i, align 4
  br label %if.end

if.else:                                          ; preds = %land.lhs.true, %entry
  store i32 0, ptr %retval, align 4
  br label %return

if.end:                                           ; preds = %if.then
  br label %while.cond

while.cond:                                       ; preds = %if.end21, %if.end
  %5 = load ptr, ptr %s.addr, align 8
  %incdec.ptr6 = getelementptr inbounds i8, ptr %5, i32 1
  store ptr %incdec.ptr6, ptr %s.addr, align 8
  %6 = load i8, ptr %5, align 1
  store i8 %6, ptr %c, align 1
  %conv7 = sext i8 %6 to i32
  %cmp8 = icmp ne i32 58, %conv7
  br i1 %cmp8, label %while.body, label %while.end

while.body:                                       ; preds = %while.cond
  %7 = load i8, ptr %c, align 1
  %conv10 = sext i8 %7 to i32
  %cmp11 = icmp sge i32 %conv10, 48
  br i1 %cmp11, label %land.lhs.true13, label %if.else20

land.lhs.true13:                                  ; preds = %while.body
  %8 = load i8, ptr %c, align 1
  %conv14 = sext i8 %8 to i32
  %cmp15 = icmp sle i32 %conv14, 57
  br i1 %cmp15, label %if.then17, label %if.else20

if.then17:                                        ; preds = %land.lhs.true13
  %9 = load i32, ptr %i, align 4
  %mul = mul i32 %9, 10
  %10 = load i8, ptr %c, align 1
  %conv18 = sext i8 %10 to i32
  %sub19 = sub nsw i32 %conv18, 48
  %add = add i32 %mul, %sub19
  store i32 %add, ptr %i, align 4
  br label %if.end21

if.else20:                                        ; preds = %land.lhs.true13, %while.body
  store i32 0, ptr %retval, align 4
  br label %return

if.end21:                                         ; preds = %if.then17
  br label %while.cond, !llvm.loop !9

while.end:                                        ; preds = %while.cond
  %11 = load i32, ptr %i, align 4
  %conv22 = uitofp i32 %11 to double
  %mul23 = fmul double %conv22, 6.000000e+01
  store double %mul23, ptr %ret, align 8
  %12 = load ptr, ptr %s.addr, align 8
  %call = call i64 @strspn(ptr noundef %12, ptr noundef @.str.9) #8
  %13 = load ptr, ptr %s.addr, align 8
  %call24 = call i64 @strlen(ptr noundef %13) #8
  %cmp25 = icmp ne i64 %call, %call24
  br i1 %cmp25, label %if.then27, label %if.end28

if.then27:                                        ; preds = %while.end
  store i32 0, ptr %retval, align 4
  br label %return

if.end28:                                         ; preds = %while.end
  %14 = load ptr, ptr %s.addr, align 8
  %call29 = call double @strtod(ptr noundef %14, ptr noundef %endptr) #7
  %15 = load double, ptr %ret, align 8
  %add30 = fadd double %15, %call29
  store double %add30, ptr %ret, align 8
  %16 = load ptr, ptr %endptr, align 8
  %17 = load ptr, ptr %s.addr, align 8
  %cmp31 = icmp eq ptr %16, %17
  br i1 %cmp31, label %if.then34, label %lor.lhs.false

lor.lhs.false:                                    ; preds = %if.end28
  %18 = load ptr, ptr %endptr, align 8
  %19 = load i8, ptr %18, align 1
  %conv33 = sext i8 %19 to i32
  %tobool = icmp ne i32 %conv33, 0
  br i1 %tobool, label %if.then34, label %if.end35

if.then34:                                        ; preds = %lor.lhs.false, %if.end28
  store i32 0, ptr %retval, align 4
  br label %return

if.end35:                                         ; preds = %lor.lhs.false
  %20 = load double, ptr %ret, align 8
  %21 = load ptr, ptr %value.addr, align 8
  store double %20, ptr %21, align 8
  store i32 1, ptr %retval, align 4
  br label %return

return:                                           ; preds = %if.end35, %if.then34, %if.then27, %if.else20, %if.else
  %22 = load i32, ptr %retval, align 4
  ret i32 %22
}

; Function Attrs: nounwind sspstrong uwtable
define internal i32 @local__parse_uint64_(ptr noundef %s, ptr noundef %value) #0 {
entry:
  %retval = alloca i32, align 4
  %s.addr = alloca ptr, align 8
  %value.addr = alloca ptr, align 8
  %ret = alloca i64, align 8
  %c = alloca i8, align 1
  %tmp = alloca i64, align 8
  store ptr %s, ptr %s.addr, align 8
  store ptr %value, ptr %value.addr, align 8
  store i64 0, ptr %ret, align 8
  %0 = load ptr, ptr %s.addr, align 8
  %1 = load i8, ptr %0, align 1
  %conv = sext i8 %1 to i32
  %cmp = icmp eq i32 %conv, 0
  br i1 %cmp, label %if.then, label %if.end

if.then:                                          ; preds = %entry
  store i32 0, ptr %retval, align 4
  br label %return

if.end:                                           ; preds = %entry
  br label %while.cond

while.cond:                                       ; preds = %if.end33, %if.end
  %2 = load ptr, ptr %s.addr, align 8
  %incdec.ptr = getelementptr inbounds i8, ptr %2, i32 1
  store ptr %incdec.ptr, ptr %s.addr, align 8
  %3 = load i8, ptr %2, align 1
  store i8 %3, ptr %c, align 1
  %conv2 = sext i8 %3 to i32
  %cmp3 = icmp ne i32 0, %conv2
  br i1 %cmp3, label %while.body, label %while.end

while.body:                                       ; preds = %while.cond
  %4 = load i8, ptr %c, align 1
  %conv5 = sext i8 %4 to i32
  %cmp6 = icmp sge i32 %conv5, 48
  br i1 %cmp6, label %land.lhs.true, label %if.else32

land.lhs.true:                                    ; preds = %while.body
  %5 = load i8, ptr %c, align 1
  %conv8 = sext i8 %5 to i32
  %cmp9 = icmp sle i32 %conv8, 57
  br i1 %cmp9, label %if.then11, label %if.else32

if.then11:                                        ; preds = %land.lhs.true
  %6 = load i64, ptr %ret, align 8
  %cmp12 = icmp ugt i64 %6, 1844674407370955161
  br i1 %cmp12, label %if.then14, label %if.else

if.then14:                                        ; preds = %if.then11
  store i32 0, ptr %retval, align 4
  br label %return

if.else:                                          ; preds = %if.then11
  %7 = load i64, ptr %ret, align 8
  %cmp15 = icmp eq i64 %7, 1844674407370955161
  br i1 %cmp15, label %if.then17, label %if.else24

if.then17:                                        ; preds = %if.else
  %8 = load i64, ptr %ret, align 8
  store i64 %8, ptr %tmp, align 8
  %9 = load i64, ptr %ret, align 8
  %mul = mul i64 %9, 10
  %10 = load i8, ptr %c, align 1
  %conv18 = sext i8 %10 to i32
  %sub = sub nsw i32 %conv18, 48
  %conv19 = sext i32 %sub to i64
  %add = add i64 %mul, %conv19
  store i64 %add, ptr %ret, align 8
  %11 = load i64, ptr %ret, align 8
  %12 = load i64, ptr %tmp, align 8
  %cmp20 = icmp ult i64 %11, %12
  br i1 %cmp20, label %if.then22, label %if.end23

if.then22:                                        ; preds = %if.then17
  store i32 0, ptr %retval, align 4
  br label %return

if.end23:                                         ; preds = %if.then17
  br label %if.end30

if.else24:                                        ; preds = %if.else
  %13 = load i64, ptr %ret, align 8
  %mul25 = mul i64 %13, 10
  %14 = load i8, ptr %c, align 1
  %conv26 = sext i8 %14 to i32
  %sub27 = sub nsw i32 %conv26, 48
  %conv28 = sext i32 %sub27 to i64
  %add29 = add i64 %mul25, %conv28
  store i64 %add29, ptr %ret, align 8
  br label %if.end30

if.end30:                                         ; preds = %if.else24, %if.end23
  br label %if.end31

if.end31:                                         ; preds = %if.end30
  br label %if.end33

if.else32:                                        ; preds = %land.lhs.true, %while.body
  store i32 0, ptr %retval, align 4
  br label %return

if.end33:                                         ; preds = %if.end31
  br label %while.cond, !llvm.loop !8

while.end:                                        ; preds = %while.cond
  %15 = load i64, ptr %ret, align 8
  %16 = load ptr, ptr %value.addr, align 8
  store i64 %15, ptr %16, align 8
  store i32 1, ptr %retval, align 4
  br label %return

return:                                           ; preds = %while.end, %if.else32, %if.then22, %if.then14, %if.then
  %17 = load i32, ptr %retval, align 4
  ret i32 %17
}

; Function Attrs: nounwind sspstrong uwtable
define dso_local i32 @flac__utils_parse_skip_until_specification(ptr noundef %s, ptr noundef %spec) #0 {
entry:
  %retval = alloca i32, align 4
  %s.addr = alloca ptr, align 8
  %spec.addr = alloca ptr, align 8
  %val = alloca i64, align 8
  %is_negative = alloca i32, align 4
  %d = alloca double, align 8
  store ptr %s, ptr %s.addr, align 8
  store ptr %spec, ptr %spec.addr, align 8
  store i32 0, ptr %is_negative, align 4
  %0 = load ptr, ptr %spec.addr, align 8
  %is_relative = getelementptr inbounds %struct.utils__SkipUntilSpecification, ptr %0, i32 0, i32 0
  store i32 0, ptr %is_relative, align 8
  %1 = load ptr, ptr %spec.addr, align 8
  %value_is_samples = getelementptr inbounds %struct.utils__SkipUntilSpecification, ptr %1, i32 0, i32 1
  store i32 1, ptr %value_is_samples, align 4
  %2 = load ptr, ptr %spec.addr, align 8
  %value = getelementptr inbounds %struct.utils__SkipUntilSpecification, ptr %2, i32 0, i32 2
  store i64 0, ptr %value, align 8
  %3 = load ptr, ptr %s.addr, align 8
  %cmp = icmp ne ptr null, %3
  br i1 %cmp, label %if.then, label %if.end38

if.then:                                          ; preds = %entry
  %4 = load ptr, ptr %s.addr, align 8
  %arrayidx = getelementptr inbounds i8, ptr %4, i64 0
  %5 = load i8, ptr %arrayidx, align 1
  %conv = sext i8 %5 to i32
  %cmp1 = icmp eq i32 %conv, 45
  br i1 %cmp1, label %if.then3, label %if.else

if.then3:                                         ; preds = %if.then
  store i32 1, ptr %is_negative, align 4
  %6 = load ptr, ptr %spec.addr, align 8
  %is_relative4 = getelementptr inbounds %struct.utils__SkipUntilSpecification, ptr %6, i32 0, i32 0
  store i32 1, ptr %is_relative4, align 8
  %7 = load ptr, ptr %s.addr, align 8
  %incdec.ptr = getelementptr inbounds i8, ptr %7, i32 1
  store ptr %incdec.ptr, ptr %s.addr, align 8
  br label %if.end12

if.else:                                          ; preds = %if.then
  %8 = load ptr, ptr %s.addr, align 8
  %arrayidx5 = getelementptr inbounds i8, ptr %8, i64 0
  %9 = load i8, ptr %arrayidx5, align 1
  %conv6 = sext i8 %9 to i32
  %cmp7 = icmp eq i32 %conv6, 43
  br i1 %cmp7, label %if.then9, label %if.end

if.then9:                                         ; preds = %if.else
  %10 = load ptr, ptr %spec.addr, align 8
  %is_relative10 = getelementptr inbounds %struct.utils__SkipUntilSpecification, ptr %10, i32 0, i32 0
  store i32 1, ptr %is_relative10, align 8
  %11 = load ptr, ptr %s.addr, align 8
  %incdec.ptr11 = getelementptr inbounds i8, ptr %11, i32 1
  store ptr %incdec.ptr11, ptr %s.addr, align 8
  br label %if.end

if.end:                                           ; preds = %if.then9, %if.else
  br label %if.end12

if.end12:                                         ; preds = %if.end, %if.then3
  %12 = load ptr, ptr %s.addr, align 8
  %call = call i32 @local__parse_uint64_(ptr noundef %12, ptr noundef %val)
  %tobool = icmp ne i32 %call, 0
  br i1 %tobool, label %if.then13, label %if.else25

if.then13:                                        ; preds = %if.end12
  %13 = load ptr, ptr %spec.addr, align 8
  %value_is_samples14 = getelementptr inbounds %struct.utils__SkipUntilSpecification, ptr %13, i32 0, i32 1
  store i32 1, ptr %value_is_samples14, align 4
  %14 = load i64, ptr %val, align 8
  %cmp15 = icmp ugt i64 %14, 9223372036854775807
  br i1 %cmp15, label %if.then17, label %if.end18

if.then17:                                        ; preds = %if.then13
  store i32 0, ptr %retval, align 4
  br label %return

if.end18:                                         ; preds = %if.then13
  %15 = load i64, ptr %val, align 8
  %16 = load ptr, ptr %spec.addr, align 8
  %value19 = getelementptr inbounds %struct.utils__SkipUntilSpecification, ptr %16, i32 0, i32 2
  store i64 %15, ptr %value19, align 8
  %17 = load i32, ptr %is_negative, align 4
  %tobool20 = icmp ne i32 %17, 0
  br i1 %tobool20, label %if.then21, label %if.end24

if.then21:                                        ; preds = %if.end18
  %18 = load ptr, ptr %spec.addr, align 8
  %value22 = getelementptr inbounds %struct.utils__SkipUntilSpecification, ptr %18, i32 0, i32 2
  %19 = load i64, ptr %value22, align 8
  %sub = sub nsw i64 0, %19
  %20 = load ptr, ptr %spec.addr, align 8
  %value23 = getelementptr inbounds %struct.utils__SkipUntilSpecification, ptr %20, i32 0, i32 2
  store i64 %sub, ptr %value23, align 8
  br label %if.end24

if.end24:                                         ; preds = %if.then21, %if.end18
  br label %if.end37

if.else25:                                        ; preds = %if.end12
  %21 = load ptr, ptr %s.addr, align 8
  %call26 = call i32 @local__parse_timecode_(ptr noundef %21, ptr noundef %d)
  %tobool27 = icmp ne i32 %call26, 0
  br i1 %tobool27, label %if.end29, label %if.then28

if.then28:                                        ; preds = %if.else25
  store i32 0, ptr %retval, align 4
  br label %return

if.end29:                                         ; preds = %if.else25
  %22 = load ptr, ptr %spec.addr, align 8
  %value_is_samples30 = getelementptr inbounds %struct.utils__SkipUntilSpecification, ptr %22, i32 0, i32 1
  store i32 0, ptr %value_is_samples30, align 4
  %23 = load double, ptr %d, align 8
  %24 = load ptr, ptr %spec.addr, align 8
  %value31 = getelementptr inbounds %struct.utils__SkipUntilSpecification, ptr %24, i32 0, i32 2
  store double %23, ptr %value31, align 8
  %25 = load i32, ptr %is_negative, align 4
  %tobool32 = icmp ne i32 %25, 0
  br i1 %tobool32, label %if.then33, label %if.end36

if.then33:                                        ; preds = %if.end29
  %26 = load ptr, ptr %spec.addr, align 8
  %value34 = getelementptr inbounds %struct.utils__SkipUntilSpecification, ptr %26, i32 0, i32 2
  %27 = load double, ptr %value34, align 8
  %fneg = fneg double %27
  %28 = load ptr, ptr %spec.addr, align 8
  %value35 = getelementptr inbounds %struct.utils__SkipUntilSpecification, ptr %28, i32 0, i32 2
  store double %fneg, ptr %value35, align 8
  br label %if.end36

if.end36:                                         ; preds = %if.then33, %if.end29
  br label %if.end37

if.end37:                                         ; preds = %if.end36, %if.end24
  br label %if.end38

if.end38:                                         ; preds = %if.end37, %entry
  store i32 1, ptr %retval, align 4
  br label %return

return:                                           ; preds = %if.end38, %if.then28, %if.then17
  %29 = load i32, ptr %retval, align 4
  ret i32 %29
}