; Function Attrs: nofree nounwind sspstrong uwtable
define dso_local range(i32 0, 2) i32 @flac__utils_parse_skip_until_specification(ptr noundef %s, ptr noundef writeonly captures(none) initializes((0, 16)) %spec) local_unnamed_addr #0 {
entry:
  %endptr.i = alloca ptr, align 8
  store i32 0, ptr %spec, align 8
  %value_is_samples = getelementptr inbounds nuw i8, ptr %spec, i64 4
  store i32 1, ptr %value_is_samples, align 4
  %value = getelementptr inbounds nuw i8, ptr %spec, i64 8
  store i64 0, ptr %value, align 8
  %cmp.not = icmp eq ptr %s, null
  br i1 %cmp.not, label %return, label %if.then

if.then:                                          ; preds = %entry
  %0 = load i8, ptr %s, align 1
  %cmp1.not.not = icmp eq i8 %0, 45
  switch i8 %0, label %if.end12 [
    i8 45, label %if.end12thread-pre-split
    i8 43, label %if.end12thread-pre-split
  ]

if.end12thread-pre-split:                         ; preds = %if.then, %if.then
  store i32 1, ptr %spec, align 8
  %s.addr.0.ph = getelementptr inbounds nuw i8, ptr %s, i64 1
  %.pr = load i8, ptr %s.addr.0.ph, align 1
  br label %if.end12

if.end12:                                         ; preds = %if.then, %if.end12thread-pre-split
  %1 = phi i8 [ %.pr, %if.end12thread-pre-split ], [ %0, %if.then ]
  %s.addr.0 = phi ptr [ %s.addr.0.ph, %if.end12thread-pre-split ], [ %s, %if.then ]
  %cmp.i = icmp eq i8 %1, 0
  br i1 %cmp.i, label %if.else25.thread, label %while.body.i

if.else25.thread:                                 ; preds = %if.end12
  call void @llvm.lifetime.start.p0(i64 8, ptr nonnull %endptr.i)
  br label %local__parse_timecode_.exit.thread

while.body.i:                                     ; preds = %if.end12, %if.end33.i
  %s.pn.i = phi ptr [ %incdec.ptr15.i, %if.end33.i ], [ %s.addr.0, %if.end12 ]
  %ret.014.i = phi i64 [ %ret.1.i, %if.end33.i ], [ 0, %if.end12 ]
  %2 = phi i8 [ %.pr.i, %if.end33.i ], [ %1, %if.end12 ]
  %incdec.ptr15.i = getelementptr inbounds nuw i8, ptr %s.pn.i, i64 1
  %3 = add i8 %2, -48
  %or.cond.i = icmp ugt i8 %3, 9
  %cmp12.i = icmp ugt i64 %ret.014.i, 1844674407370955161
  %or.cond11.i = select i1 %or.cond.i, i1 true, i1 %cmp12.i
  br i1 %or.cond11.i, label %if.else25, label %if.else.i

if.else.i:                                        ; preds = %while.body.i
  %cmp15.i = icmp eq i64 %ret.014.i, 1844674407370955161
  br i1 %cmp15.i, label %if.then17.i, label %if.else24.i

if.then17.i:                                      ; preds = %if.else.i
  %4 = zext nneg i8 %2 to i64
  %add.i = add nsw i64 %4, -54
  %cmp20.i = icmp ult i64 %add.i, 1844674407370955161
  br i1 %cmp20.i, label %if.else25, label %if.end33.i

if.else24.i:                                      ; preds = %if.else.i
  %mul25.i = mul nuw i64 %ret.014.i, 10
  %conv28.i = zext nneg i8 %3 to i64
  %add29.i = add nuw i64 %mul25.i, %conv28.i
  br label %if.end33.i

if.end33.i:                                       ; preds = %if.else24.i, %if.then17.i
  %ret.1.i = phi i64 [ %add.i, %if.then17.i ], [ %add29.i, %if.else24.i ]
  %.pr.i = load i8, ptr %incdec.ptr15.i, align 1
  %cmp3.not.i = icmp eq i8 %.pr.i, 0
  br i1 %cmp3.not.i, label %if.then13, label %while.body.i, !llvm.loop !8

if.then13:                                        ; preds = %if.end33.i
  store i32 1, ptr %value_is_samples, align 4
  %cmp15 = icmp slt i64 %ret.1.i, 0
  br i1 %cmp15, label %return, label %if.end18

if.end18:                                         ; preds = %if.then13
  store i64 %ret.1.i, ptr %value, align 8
  br i1 %cmp1.not.not, label %if.then21, label %return

if.then21:                                        ; preds = %if.end18
  %sub = sub nsw i64 0, %ret.1.i
  store i64 %sub, ptr %value, align 8
  br label %return

if.else25:                                        ; preds = %if.then17.i, %while.body.i
  call void @llvm.lifetime.start.p0(i64 8, ptr nonnull %endptr.i)
  %5 = add i8 %1, -48
  %or.cond.i20 = icmp ult i8 %5, 10
  br i1 %or.cond.i20, label %if.then.i, label %local__parse_timecode_.exit.thread

if.then.i:                                        ; preds = %if.else25
  %conv.i = zext nneg i8 %1 to i32
  %incdec.ptr.i = getelementptr inbounds nuw i8, ptr %s.addr.0, i64 1
  %sub.i = add nsw i32 %conv.i, -48
  %incdec.ptr616.i = getelementptr inbounds nuw i8, ptr %s.addr.0, i64 2
  %6 = load i8, ptr %incdec.ptr.i, align 1
  %cmp8.not17.i = icmp eq i8 %6, 58
  br i1 %cmp8.not17.i, label %while.end.i25, label %while.body.i22

while.body.i22:                                   ; preds = %if.then.i, %if.then17.i23
  %7 = phi i8 [ %9, %if.then17.i23 ], [ %6, %if.then.i ]
  %incdec.ptr619.i = phi ptr [ %incdec.ptr6.i, %if.then17.i23 ], [ %incdec.ptr616.i, %if.then.i ]
  %i.018.i = phi i32 [ %add.i24, %if.then17.i23 ], [ %sub.i, %if.then.i ]
  %8 = add i8 %7, -48
  %or.cond1.i = icmp ult i8 %8, 10
  br i1 %or.cond1.i, label %if.then17.i23, label %local__parse_timecode_.exit.thread

if.then17.i23:                                    ; preds = %while.body.i22
  %mul.i = mul i32 %i.018.i, 10
  %sub19.i = zext nneg i8 %8 to i32
  %add.i24 = add i32 %mul.i, %sub19.i
  %incdec.ptr6.i = getelementptr inbounds nuw i8, ptr %incdec.ptr619.i, i64 1
  %9 = load i8, ptr %incdec.ptr619.i, align 1
  %cmp8.not.i = icmp eq i8 %9, 58
  br i1 %cmp8.not.i, label %while.end.i25, label %while.body.i22, !llvm.loop !9

while.end.i25:                                    ; preds = %if.then17.i23, %if.then.i
  %i.0.lcssa.i = phi i32 [ %sub.i, %if.then.i ], [ %add.i24, %if.then17.i23 ]
  %incdec.ptr6.lcssa.i = phi ptr [ %incdec.ptr616.i, %if.then.i ], [ %incdec.ptr6.i, %if.then17.i23 ]
  %call.i = tail call i64 @strspn(ptr noundef nonnull %incdec.ptr6.lcssa.i, ptr noundef nonnull @.str.9) #19
  %call24.i = tail call i64 @strlen(ptr noundef nonnull dereferenceable(1) %incdec.ptr6.lcssa.i) #19
  %cmp25.not.i = icmp eq i64 %call.i, %call24.i
  br i1 %cmp25.not.i, label %if.end28.i, label %local__parse_timecode_.exit.thread

if.end28.i:                                       ; preds = %while.end.i25
  %conv22.i = uitofp i32 %i.0.lcssa.i to double
  %mul23.i = fmul double %conv22.i, 6.000000e+01
  %call29.i = call double @strtod(ptr noundef nonnull %incdec.ptr6.lcssa.i, ptr noundef nonnull %endptr.i) #18
  %add30.i = fadd double %mul23.i, %call29.i
  %10 = load ptr, ptr %endptr.i, align 8
  %cmp31.i = icmp eq ptr %10, %incdec.ptr6.lcssa.i
  br i1 %cmp31.i, label %local__parse_timecode_.exit.thread, label %lor.lhs.false.i

lor.lhs.false.i:                                  ; preds = %if.end28.i
  %11 = load i8, ptr %10, align 1
  %tobool.not.i = icmp eq i8 %11, 0
  br i1 %tobool.not.i, label %if.end29, label %local__parse_timecode_.exit.thread

local__parse_timecode_.exit.thread:               ; preds = %while.body.i22, %if.else25, %while.end.i25, %lor.lhs.false.i, %if.end28.i, %if.else25.thread
  call void @llvm.lifetime.end.p0(i64 8, ptr nonnull %endptr.i)
  br label %return

if.end29:                                         ; preds = %lor.lhs.false.i
  call void @llvm.lifetime.end.p0(i64 8, ptr nonnull %endptr.i)
  store i32 0, ptr %value_is_samples, align 4
  store double %add30.i, ptr %value, align 8
  br i1 %cmp1.not.not, label %if.then33, label %return

if.then33:                                        ; preds = %if.end29
  %fneg = fneg double %add30.i
  store double %fneg, ptr %value, align 8
  br label %return

return:                                           ; preds = %local__parse_timecode_.exit.thread, %entry, %if.end29, %if.then33, %if.end18, %if.then21, %if.then13
  %retval.0 = phi i32 [ 0, %if.then13 ], [ 1, %if.then21 ], [ 1, %if.end18 ], [ 1, %if.then33 ], [ 1, %if.end29 ], [ 1, %entry ], [ 0, %local__parse_timecode_.exit.thread ]
  ret i32 %retval.0
}